; Function Attrs: nounwind uwtable
define internal range(i32 -20, 903) i32 @idaNlsConvTest(ptr noundef %0, ptr readnone captures(none) %1, ptr noundef %2, double noundef %3, ptr noundef %4, ptr noundef captures(address_is_null) %5) #0 {
  %7 = alloca i32, align 4
  call void @llvm.lifetime.start.p0(i64 4, ptr nonnull %7) #3
  %8 = icmp eq ptr %5, null
  br i1 %8, label %9, label %10

9:                                                ; preds = %6
  tail call void (ptr, i32, i32, ptr, ptr, ptr, ...) @IDAProcessError(ptr noundef null, i32 noundef -20, i32 noundef 333, ptr noundef nonnull @__func__.idaNlsConvTest, ptr noundef nonnull @.str, ptr noundef nonnull @.str.1) #3
  br label %37

10:                                               ; preds = %6
  %11 = tail call double @N_VWrmsNorm(ptr noundef %2, ptr noundef %4) #3
  %12 = call i32 @SUNNonlinSolGetCurIter(ptr noundef %0, ptr noundef nonnull %7) #3
  %.not = icmp eq i32 %12, 0
  br i1 %.not, label %13, label %37

13:                                               ; preds = %10
  %14 = load i32, ptr %7, align 4, !tbaa !35
  %15 = icmp eq i32 %14, 0
  %16 = getelementptr inbounds nuw i8, ptr %5, i64 736
  br i1 %15, label %17, label %22

17:                                               ; preds = %13
  store double %11, ptr %16, align 8, !tbaa !36
  %18 = getelementptr inbounds nuw i8, ptr %5, i64 760
  %19 = load double, ptr %18, align 8, !tbaa !37
  %20 = fmul double %19, 1.000000e-04
  %21 = fcmp ugt double %11, %20
  br i1 %21, label %._crit_edge, label %37

._crit_edge:                                      ; preds = %17
  %.phi.trans.insert = getelementptr inbounds nuw i8, ptr %5, i64 728
  %.pre = load double, ptr %.phi.trans.insert, align 8, !tbaa !38
  br label %33

22:                                               ; preds = %13
  %23 = load double, ptr %16, align 8, !tbaa !36
  %24 = fdiv double %11, %23
  %25 = sitofp i32 %14 to double
  %26 = fdiv double 1.000000e+00, %25
  %27 = call double @SUNRpowerR(double noundef %24, double noundef %26) #3
  %28 = fcmp ogt double %27, 9.000000e-01
  br i1 %28, label %37, label %29

29:                                               ; preds = %22
  %30 = fsub double 1.000000e+00, %27
  %31 = fdiv double %27, %30
  %32 = getelementptr inbounds nuw i8, ptr %5, i64 728
  store double %31, ptr %32, align 8, !tbaa !38
  br label %33

33:                                               ; preds = %._crit_edge, %29
  %34 = phi double [ %.pre, %._crit_edge ], [ %31, %29 ]
  %35 = fmul double %11, %34
  %36 = fcmp ugt double %35, %3
  %. = select i1 %36, i32 901, i32 0
  br label %37

37:                                               ; preds = %33, %22, %17, %10, %9
  %.0 = phi i32 [ -20, %9 ], [ -20, %10 ], [ 0, %17 ], [ 902, %22 ], [ %., %33 ]
  call void @llvm.lifetime.end.p0(i64 4, ptr nonnull %7) #3
  ret i32 %.0
}